; Function Attrs: nounwind sspstrong uwtable
define internal fastcc void @w_class(i8 noundef signext range(i8 83, 118) %0, i64 noundef %1, ptr noundef %2, i32 noundef range(i32 0, 2) %3) unnamed_addr #0 {
  %5 = alloca i8, align 1
  %6 = alloca i64, align 8
  call void @llvm.lifetime.start.p0(i64 8, ptr nonnull %6) #22
  %7 = getelementptr inbounds nuw i8, ptr %2, i64 32
  %8 = load ptr, ptr %7, align 8, !tbaa !44
  %.not = icmp eq ptr %8, null
  br i1 %.not, label %12, label %9

9:                                                ; preds = %4
  %10 = call i32 @rb_st_lookup(ptr noundef nonnull %8, i64 noundef %1, ptr noundef nonnull %6) #22
  %.not12 = icmp eq i32 %10, 0
  %11 = load i64, ptr %6, align 8
  %spec.select = select i1 %.not12, i64 %1, i64 %11
  br label %12

12:                                               ; preds = %9, %4
  %.0 = phi i64 [ %1, %4 ], [ %spec.select, %9 ]
  %13 = icmp eq i64 %.0, 0
  %14 = and i64 %.0, 7
  %15 = icmp ne i64 %14, 0
  %16 = or i1 %13, %15
  br i1 %16, label %20, label %17

17:                                               ; preds = %12
  %18 = inttoptr i64 %.0 to ptr
  %19 = getelementptr inbounds nuw i8, ptr %18, i64 8
  br label %rb_class_of.exit

20:                                               ; preds = %12
  switch i64 %.0, label %23 [
    i64 0, label %rb_class_of.exit
    i64 4, label %21
    i64 20, label %22
  ]

21:                                               ; preds = %20
  br label %rb_class_of.exit

22:                                               ; preds = %20
  br label %rb_class_of.exit

23:                                               ; preds = %20
  %24 = and i64 %.0, 1
  %.not.i = icmp eq i64 %24, 0
  br i1 %.not.i, label %25, label %rb_class_of.exit

25:                                               ; preds = %23
  %26 = and i64 %.0, 254
  %27 = icmp eq i64 %26, 12
  %spec.select.i = select i1 %27, ptr @rb_cSymbol, ptr @rb_cFloat
  br label %rb_class_of.exit

rb_class_of.exit:                                 ; preds = %17, %20, %21, %22, %23, %25
  %.0.in.i = phi ptr [ @rb_cNilClass, %21 ], [ @rb_cTrueClass, %22 ], [ %19, %17 ], [ @rb_cFalseClass, %20 ], [ @rb_cInteger, %23 ], [ %spec.select.i, %25 ]
  %.0.i = load i64, ptr %.0.in.i, align 8, !tbaa !7
  call fastcc void @w_extended(i64 noundef %.0.i, ptr noundef nonnull %2, i32 noundef %3)
  call void @llvm.lifetime.start.p0(i64 1, ptr nonnull %5)
  store i8 %0, ptr %5, align 1, !tbaa !17
  %28 = load i64, ptr %2, align 8, !tbaa !40
  %29 = call i64 @rb_str_cat(i64 noundef %28, ptr noundef nonnull %5, i64 noundef 1) #22
  %30 = getelementptr inbounds nuw i8, ptr %2, i64 8
  %31 = load i64, ptr %30, align 8, !tbaa !36
  %.not.i.i = icmp eq i64 %31, 0
  br i1 %.not.i.i, label %w_byte.exit, label %32

32:                                               ; preds = %rb_class_of.exit
  %33 = inttoptr i64 %28 to ptr
  %34 = getelementptr inbounds nuw i8, ptr %33, i64 16
  %35 = load i64, ptr %34, align 8, !tbaa !41
  %36 = icmp sgt i64 %35, 8191
  br i1 %36, label %37, label %w_byte.exit

37:                                               ; preds = %32
  %38 = call i64 @rb_io_write(i64 noundef %31, i64 noundef %28) #22
  %39 = call i64 @rb_str_resize(i64 noundef %28, i64 noundef 0) #22
  br label %w_byte.exit

w_byte.exit:                                      ; preds = %rb_class_of.exit, %32, %37
  call void @llvm.lifetime.end.p0(i64 1, ptr nonnull %5)
  %40 = call i64 @rb_class_real(i64 noundef %.0.i) #27
  %41 = call fastcc i64 @class2path(i64 noundef %40)
  %42 = inttoptr i64 %41 to ptr
  %43 = load i64, ptr %42, align 8, !tbaa !56, !noalias !114
  %44 = and i64 %43, 8192
  %.not.i.i.i = icmp eq i64 %44, 0
  %45 = getelementptr inbounds nuw i8, ptr %42, i64 24
  br i1 %.not.i.i.i, label %RSTRING_PTR.exit.i, label %46

46:                                               ; preds = %w_byte.exit
  %.sroa.2.0.copyload.i.i = load ptr, ptr %45, align 8
  br label %RSTRING_PTR.exit.i

RSTRING_PTR.exit.i:                               ; preds = %46, %w_byte.exit
  %.sroa.2.0.i.i = phi ptr [ %.sroa.2.0.copyload.i.i, %46 ], [ %45, %w_byte.exit ]
  %47 = call ptr @rb_enc_get(i64 noundef %41) #22
  %48 = getelementptr i8, ptr %47, i64 20
  %.val.i.i = load i32, ptr %48, align 4, !tbaa !117
  %.not.i.i13 = icmp eq i32 %.val.i.i, 1
  br i1 %.not.i.i13, label %rb_enc_asciicompat.exit.i, label %rb_enc_asciicompat.exit.thread.i

rb_enc_asciicompat.exit.i:                        ; preds = %RSTRING_PTR.exit.i
  %49 = call i32 @rb_enc_dummy_p(ptr noundef nonnull readonly %47) #27
  %.not3.i.i = icmp eq i32 %49, 0
  br i1 %.not3.i.i, label %51, label %rb_enc_asciicompat.exit.thread.i

rb_enc_asciicompat.exit.thread.i:                 ; preds = %rb_enc_asciicompat.exit.i, %RSTRING_PTR.exit.i
  %50 = load i64, ptr @rb_eTypeError, align 8, !tbaa !7
  call void (i64, ptr, ...) @rb_raise(i64 noundef %50, ptr noundef nonnull @.str.50, ptr noundef nonnull @.str.49, i64 noundef %41) #23
  unreachable

51:                                               ; preds = %rb_enc_asciicompat.exit.i
  %52 = load i8, ptr %.sroa.2.0.i.i, align 1, !tbaa !17
  %53 = icmp eq i8 %52, 35
  br i1 %53, label %54, label %must_not_be_anonymous.exit

54:                                               ; preds = %51
  %55 = load i64, ptr @rb_eTypeError, align 8, !tbaa !7
  call void (i64, ptr, ...) @rb_raise(i64 noundef %55, ptr noundef nonnull @.str.51, ptr noundef nonnull @.str.49, i64 noundef %41) #23
  unreachable

must_not_be_anonymous.exit:                       ; preds = %51
  %56 = call i64 @rb_str_intern(i64 noundef %41) #22
  call fastcc void @w_symbol(i64 noundef %56, ptr noundef nonnull %2)
  call void @llvm.lifetime.end.p0(i64 8, ptr nonnull %6) #22
  ret void
}